target datalayout = "e-m:e-p270:32:32-p271:32:32-p272:64:64-i64:64-i128:128-f80:128-n8:16:32:64-S128"
target triple = "x86_64-pc-linux-gnu"

%struct._dumpOptions = type { %struct._connParams, i32, i32, i8, ptr, i32, i32, i32, i32, i32, i32, i32, i32, i32, i32, i32, i32, i32, i32, i32, i32, i32, i8, i32, i32, i8, i8, i32, ptr, i32, i32, i8, i8 }
%struct._connParams = type { ptr, ptr, ptr, ptr, i32, ptr }
%struct._restoreOptions = type { i32, i32, i32, i32, i32, i32, ptr, ptr, i32, i32, i32, i32, i32, i32, i32, i32, i32, i32, ptr, i32, i32, i32, ptr, i32, i32, ptr, i32, ptr, i32, i32, i32, i32, i32, %struct.SimpleStringList, %struct.SimpleStringList, %struct.SimpleStringList, %struct.SimpleStringList, %struct.SimpleStringList, %struct.SimpleStringList, i32, %struct._connParams, i32, i32, %struct.pg_compress_specification, i32, i8, i32, ptr, i32, i32, i32, i8, i8 }
%struct.SimpleStringList = type { ptr, ptr }
%struct.pg_compress_specification = type { i32, i32, i32, i32, i8, ptr }

; Function Attrs: nounwind uwtable
define dso_local void @InitDumpOptions(ptr noundef %0) #0 {
  %2 = alloca ptr, align 8
  store ptr %0, ptr %2, align 8
  %3 = load ptr, ptr %2, align 8
  call void @llvm.memset.p0.i64(ptr align 8 %3, i8 0, i64 184, i1 false)
  %4 = load ptr, ptr %2, align 8
  %5 = getelementptr inbounds nuw %struct._dumpOptions, ptr %4, i32 0, i32 22
  store i8 1, ptr %5, align 4
  %6 = load ptr, ptr %2, align 8
  %7 = getelementptr inbounds nuw %struct._dumpOptions, ptr %6, i32 0, i32 0
  %8 = getelementptr inbounds nuw %struct._connParams, ptr %7, i32 0, i32 4
  store i32 0, ptr %8, align 8
  %9 = load ptr, ptr %2, align 8
  %10 = getelementptr inbounds nuw %struct._dumpOptions, ptr %9, i32 0, i32 2
  store i32 255, ptr %10, align 4
  %11 = load ptr, ptr %2, align 8
  %12 = getelementptr inbounds nuw %struct._dumpOptions, ptr %11, i32 0, i32 31
  store i8 1, ptr %12, align 8
  %13 = load ptr, ptr %2, align 8
  %14 = getelementptr inbounds nuw %struct._dumpOptions, ptr %13, i32 0, i32 32
  store i8 1, ptr %14, align 1
  ret void
}

; Function Attrs: nounwind uwtable
define dso_local ptr @NewDumpOptions() #0 {
  %1 = alloca ptr, align 8
  call void @llvm.lifetime.start.p0(i64 8, ptr %1) #11
  %2 = call ptr @pg_malloc(i64 noundef 184)
  store ptr %2, ptr %1, align 8
  %3 = load ptr, ptr %1, align 8
  call void @InitDumpOptions(ptr noundef %3)
  %4 = load ptr, ptr %1, align 8
  call void @llvm.lifetime.end.p0(i64 8, ptr %1) #11
  ret ptr %4
}

; Function Attrs: nounwind uwtable
define dso_local ptr @dumpOptionsFromRestoreOptions(ptr noundef %0) #0 {
  %2 = alloca ptr, align 8
  %3 = alloca ptr, align 8
  store ptr %0, ptr %2, align 8
  call void @llvm.lifetime.start.p0(i64 8, ptr %3) #11
  %4 = call ptr @NewDumpOptions()
  store ptr %4, ptr %3, align 8
  %5 = load ptr, ptr %2, align 8
  %6 = getelementptr inbounds nuw %struct._restoreOptions, ptr %5, i32 0, i32 40
  %7 = getelementptr inbounds nuw %struct._connParams, ptr %6, i32 0, i32 0
  %8 = load ptr, ptr %7, align 8
  %9 = icmp ne ptr %8, null
  br i1 %9, label %10, label %16

10:                                               ; preds = %1
  %11 = load ptr, ptr %2, align 8
  %12 = getelementptr inbounds nuw %struct._restoreOptions, ptr %11, i32 0, i32 40
  %13 = getelementptr inbounds nuw %struct._connParams, ptr %12, i32 0, i32 0
  %14 = load ptr, ptr %13, align 8
  %15 = call ptr @pg_strdup(ptr noundef %14)
  br label %17

16:                                               ; preds = %1
  br label %17

17:                                               ; preds = %16, %10
  %18 = phi ptr [ %15, %10 ], [ null, %16 ]
  %19 = load ptr, ptr %3, align 8
  %20 = getelementptr inbounds nuw %struct._dumpOptions, ptr %19, i32 0, i32 0
  %21 = getelementptr inbounds nuw %struct._connParams, ptr %20, i32 0, i32 0
  store ptr %18, ptr %21, align 8
  %22 = load ptr, ptr %2, align 8
  %23 = getelementptr inbounds nuw %struct._restoreOptions, ptr %22, i32 0, i32 40
  %24 = getelementptr inbounds nuw %struct._connParams, ptr %23, i32 0, i32 1
  %25 = load ptr, ptr %24, align 8
  %26 = icmp ne ptr %25, null
  br i1 %26, label %27, label %33

27:                                               ; preds = %17
  %28 = load ptr, ptr %2, align 8
  %29 = getelementptr inbounds nuw %struct._restoreOptions, ptr %28, i32 0, i32 40
  %30 = getelementptr inbounds nuw %struct._connParams, ptr %29, i32 0, i32 1
  %31 = load ptr, ptr %30, align 8
  %32 = call ptr @pg_strdup(ptr noundef %31)
  br label %34

33:                                               ; preds = %17
  br label %34

34:                                               ; preds = %33, %27
  %35 = phi ptr [ %32, %27 ], [ null, %33 ]
  %36 = load ptr, ptr %3, align 8
  %37 = getelementptr inbounds nuw %struct._dumpOptions, ptr %36, i32 0, i32 0
  %38 = getelementptr inbounds nuw %struct._connParams, ptr %37, i32 0, i32 1
  store ptr %35, ptr %38, align 8
  %39 = load ptr, ptr %2, align 8
  %40 = getelementptr inbounds nuw %struct._restoreOptions, ptr %39, i32 0, i32 40
  %41 = getelementptr inbounds nuw %struct._connParams, ptr %40, i32 0, i32 2
  %42 = load ptr, ptr %41, align 8
  %43 = icmp ne ptr %42, null
  br i1 %43, label %44, label %50

44:                                               ; preds = %34
  %45 = load ptr, ptr %2, align 8
  %46 = getelementptr inbounds nuw %struct._restoreOptions, ptr %45, i32 0, i32 40
  %47 = getelementptr inbounds nuw %struct._connParams, ptr %46, i32 0, i32 2
  %48 = load ptr, ptr %47, align 8
  %49 = call ptr @pg_strdup(ptr noundef %48)
  br label %51

50:                                               ; preds = %34
  br label %51

51:                                               ; preds = %50, %44
  %52 = phi ptr [ %49, %44 ], [ null, %50 ]
  %53 = load ptr, ptr %3, align 8
  %54 = getelementptr inbounds nuw %struct._dumpOptions, ptr %53, i32 0, i32 0
  %55 = getelementptr inbounds nuw %struct._connParams, ptr %54, i32 0, i32 2
  store ptr %52, ptr %55, align 8
  %56 = load ptr, ptr %2, align 8
  %57 = getelementptr inbounds nuw %struct._restoreOptions, ptr %56, i32 0, i32 40
  %58 = getelementptr inbounds nuw %struct._connParams, ptr %57, i32 0, i32 3
  %59 = load ptr, ptr %58, align 8
  %60 = icmp ne ptr %59, null
  br i1 %60, label %61, label %67

61:                                               ; preds = %51
  %62 = load ptr, ptr %2, align 8
  %63 = getelementptr inbounds nuw %struct._restoreOptions, ptr %62, i32 0, i32 40
  %64 = getelementptr inbounds nuw %struct._connParams, ptr %63, i32 0, i32 3
  %65 = load ptr, ptr %64, align 8
  %66 = call ptr @pg_strdup(ptr noundef %65)
  br label %68

67:                                               ; preds = %51
  br label %68

68:                                               ; preds = %67, %61
  %69 = phi ptr [ %66, %61 ], [ null, %67 ]
  %70 = load ptr, ptr %3, align 8
  %71 = getelementptr inbounds nuw %struct._dumpOptions, ptr %70, i32 0, i32 0
  %72 = getelementptr inbounds nuw %struct._connParams, ptr %71, i32 0, i32 3
  store ptr %69, ptr %72, align 8
  %73 = load ptr, ptr %2, align 8
  %74 = getelementptr inbounds nuw %struct._restoreOptions, ptr %73, i32 0, i32 40
  %75 = getelementptr inbounds nuw %struct._connParams, ptr %74, i32 0, i32 4
  %76 = load i32, ptr %75, align 8
  %77 = load ptr, ptr %3, align 8
  %78 = getelementptr inbounds nuw %struct._dumpOptions, ptr %77, i32 0, i32 0
  %79 = getelementptr inbounds nuw %struct._connParams, ptr %78, i32 0, i32 4
  store i32 %76, ptr %79, align 8
  %80 = load ptr, ptr %2, align 8
  %81 = getelementptr inbounds nuw %struct._restoreOptions, ptr %80, i32 0, i32 8
  %82 = load i32, ptr %81, align 8
  %83 = load ptr, ptr %3, align 8
  %84 = getelementptr inbounds nuw %struct._dumpOptions, ptr %83, i32 0, i32 23
  store i32 %82, ptr %84, align 8
  %85 = load ptr, ptr %2, align 8
  %86 = getelementptr inbounds nuw %struct._restoreOptions, ptr %85, i32 0, i32 52
  %87 = load i8, ptr %86, align 1, !range !4, !noundef !5
  %88 = trunc i8 %87 to i1
  %89 = load ptr, ptr %3, align 8
  %90 = getelementptr inbounds nuw %struct._dumpOptions, ptr %89, i32 0, i32 32
  %91 = zext i1 %88 to i8
  store i8 %91, ptr %90, align 1
  %92 = load ptr, ptr %2, align 8
  %93 = getelementptr inbounds nuw %struct._restoreOptions, ptr %92, i32 0, i32 51
  %94 = load i8, ptr %93, align 4, !range !4, !noundef !5
  %95 = trunc i8 %94 to i1
  %96 = load ptr, ptr %3, align 8
  %97 = getelementptr inbounds nuw %struct._dumpOptions, ptr %96, i32 0, i32 31
  %98 = zext i1 %95 to i8
  store i8 %98, ptr %97, align 8
  %99 = load ptr, ptr %2, align 8
  %100 = getelementptr inbounds nuw %struct._restoreOptions, ptr %99, i32 0, i32 12
  %101 = load i32, ptr %100, align 8
  %102 = load ptr, ptr %3, align 8
  %103 = getelementptr inbounds nuw %struct._dumpOptions, ptr %102, i32 0, i32 8
  store i32 %101, ptr %103, align 4
  %104 = load ptr, ptr %2, align 8
  %105 = getelementptr inbounds nuw %struct._restoreOptions, ptr %104, i32 0, i32 11
  %106 = load i32, ptr %105, align 4
  %107 = load ptr, ptr %3, align 8
  %108 = getelementptr inbounds nuw %struct._dumpOptions, ptr %107, i32 0, i32 7
  store i32 %106, ptr %108, align 8
  %109 = load ptr, ptr %2, align 8
  %110 = getelementptr inbounds nuw %struct._restoreOptions, ptr %109, i32 0, i32 19
  %111 = load i32, ptr %110, align 8
  %112 = load ptr, ptr %3, align 8
  %113 = getelementptr inbounds nuw %struct._dumpOptions, ptr %112, i32 0, i32 2
  store i32 %111, ptr %113, align 4
  %114 = load ptr, ptr %2, align 8
  %115 = getelementptr inbounds nuw %struct._restoreOptions, ptr %114, i32 0, i32 21
  %116 = load i32, ptr %115, align 8
  %117 = icmp ne i32 %116, 0
  %118 = load ptr, ptr %3, align 8
  %119 = getelementptr inbounds nuw %struct._dumpOptions, ptr %118, i32 0, i32 3
  %120 = zext i1 %117 to i8
  store i8 %120, ptr %119, align 8
  %121 = load ptr, ptr %2, align 8
  %122 = getelementptr inbounds nuw %struct._restoreOptions, ptr %121, i32 0, i32 6
  %123 = load ptr, ptr %122, align 8
  %124 = load ptr, ptr %3, align 8
  %125 = getelementptr inbounds nuw %struct._dumpOptions, ptr %124, i32 0, i32 28
  store ptr %123, ptr %125, align 8
  %126 = load ptr, ptr %2, align 8
  %127 = getelementptr inbounds nuw %struct._restoreOptions, ptr %126, i32 0, i32 0
  %128 = load i32, ptr %127, align 8
  %129 = load ptr, ptr %3, align 8
  %130 = getelementptr inbounds nuw %struct._dumpOptions, ptr %129, i32 0, i32 24
  store i32 %128, ptr %130, align 4
  %131 = load ptr, ptr %2, align 8
  %132 = getelementptr inbounds nuw %struct._restoreOptions, ptr %131, i32 0, i32 1
  %133 = load i32, ptr %132, align 4
  %134 = load ptr, ptr %3, align 8
  %135 = getelementptr inbounds nuw %struct._dumpOptions, ptr %134, i32 0, i32 27
  store i32 %133, ptr %135, align 4
  %136 = load ptr, ptr %2, align 8
  %137 = getelementptr inbounds nuw %struct._restoreOptions, ptr %136, i32 0, i32 2
  %138 = load i32, ptr %137, align 8
  %139 = load ptr, ptr %3, align 8
  %140 = getelementptr inbounds nuw %struct._dumpOptions, ptr %139, i32 0, i32 17
  store i32 %138, ptr %140, align 8
  %141 = load ptr, ptr %2, align 8
  %142 = getelementptr inbounds nuw %struct._restoreOptions, ptr %141, i32 0, i32 3
  %143 = load i32, ptr %142, align 4
  %144 = load ptr, ptr %3, align 8
  %145 = getelementptr inbounds nuw %struct._dumpOptions, ptr %144, i32 0, i32 18
  store i32 %143, ptr %145, align 4
  %146 = load ptr, ptr %2, align 8
  %147 = getelementptr inbounds nuw %struct._restoreOptions, ptr %146, i32 0, i32 4
  %148 = load i32, ptr %147, align 8
  %149 = load ptr, ptr %3, align 8
  %150 = getelementptr inbounds nuw %struct._dumpOptions, ptr %149, i32 0, i32 16
  store i32 %148, ptr %150, align 4
  %151 = load ptr, ptr %2, align 8
  %152 = getelementptr inbounds nuw %struct._restoreOptions, ptr %151, i32 0, i32 5
  %153 = load i32, ptr %152, align 4
  %154 = load ptr, ptr %3, align 8
  %155 = getelementptr inbounds nuw %struct._dumpOptions, ptr %154, i32 0, i32 19
  store i32 %153, ptr %155, align 8
  %156 = load ptr, ptr %2, align 8
  %157 = getelementptr inbounds nuw %struct._restoreOptions, ptr %156, i32 0, i32 9
  %158 = load i32, ptr %157, align 4
  %159 = load ptr, ptr %3, align 8
  %160 = getelementptr inbounds nuw %struct._dumpOptions, ptr %159, i32 0, i32 6
  store i32 %158, ptr %160, align 4
  %161 = load ptr, ptr %2, align 8
  %162 = getelementptr inbounds nuw %struct._restoreOptions, ptr %161, i32 0, i32 10
  %163 = load i32, ptr %162, align 8
  %164 = load ptr, ptr %3, align 8
  %165 = getelementptr inbounds nuw %struct._dumpOptions, ptr %164, i32 0, i32 5
  store i32 %163, ptr %165, align 8
  %166 = load ptr, ptr %2, align 8
  %167 = getelementptr inbounds nuw %struct._restoreOptions, ptr %166, i32 0, i32 13
  %168 = load i32, ptr %167, align 4
  %169 = load ptr, ptr %3, align 8
  %170 = getelementptr inbounds nuw %struct._dumpOptions, ptr %169, i32 0, i32 9
  store i32 %168, ptr %170, align 8
  %171 = load ptr, ptr %2, align 8
  %172 = getelementptr inbounds nuw %struct._restoreOptions, ptr %171, i32 0, i32 14
  %173 = load i32, ptr %172, align 8
  %174 = load ptr, ptr %3, align 8
  %175 = getelementptr inbounds nuw %struct._dumpOptions, ptr %174, i32 0, i32 11
  store i32 %173, ptr %175, align 8
  %176 = load ptr, ptr %2, align 8
  %177 = getelementptr inbounds nuw %struct._restoreOptions, ptr %176, i32 0, i32 15
  %178 = load i32, ptr %177, align 4
  %179 = load ptr, ptr %3, align 8
  %180 = getelementptr inbounds nuw %struct._dumpOptions, ptr %179, i32 0, i32 10
  store i32 %178, ptr %180, align 4
  %181 = load ptr, ptr %2, align 8
  %182 = getelementptr inbounds nuw %struct._restoreOptions, ptr %181, i32 0, i32 16
  %183 = load i32, ptr %182, align 8
  %184 = load ptr, ptr %3, align 8
  %185 = getelementptr inbounds nuw %struct._dumpOptions, ptr %184, i32 0, i32 12
  store i32 %183, ptr %185, align 4
  %186 = load ptr, ptr %2, align 8
  %187 = getelementptr inbounds nuw %struct._restoreOptions, ptr %186, i32 0, i32 22
  %188 = load ptr, ptr %187, align 8
  %189 = load ptr, ptr %3, align 8
  %190 = getelementptr inbounds nuw %struct._dumpOptions, ptr %189, i32 0, i32 4
  store ptr %188, ptr %190, align 8
  %191 = load ptr, ptr %2, align 8
  %192 = getelementptr inbounds nuw %struct._restoreOptions, ptr %191, i32 0, i32 23
  %193 = load i32, ptr %192, align 8
  %194 = icmp ne i32 %193, 0
  %195 = load ptr, ptr %3, align 8
  %196 = getelementptr inbounds nuw %struct._dumpOptions, ptr %195, i32 0, i32 22
  %197 = zext i1 %194 to i8
  store i8 %197, ptr %196, align 4
  %198 = load ptr, ptr %2, align 8
  %199 = getelementptr inbounds nuw %struct._restoreOptions, ptr %198, i32 0, i32 48
  %200 = load i32, ptr %199, align 8
  %201 = load ptr, ptr %3, align 8
  %202 = getelementptr inbounds nuw %struct._dumpOptions, ptr %201, i32 0, i32 20
  store i32 %200, ptr %202, align 4
  %203 = load ptr, ptr %2, align 8
  %204 = getelementptr inbounds nuw %struct._restoreOptions, ptr %203, i32 0, i32 49
  %205 = load i32, ptr %204, align 4
  %206 = load ptr, ptr %3, align 8
  %207 = getelementptr inbounds nuw %struct._dumpOptions, ptr %206, i32 0, i32 29
  store i32 %205, ptr %207, align 8
  %208 = load ptr, ptr %3, align 8
  call void @llvm.lifetime.end.p0(i64 8, ptr %3) #11
  ret ptr %208
}