; Function Attrs: nounwind uwtable
define dso_local noundef ptr @dumpOptionsFromRestoreOptions(ptr noundef readonly captures(none) %0) local_unnamed_addr #0 {
  %2 = tail call ptr @pg_malloc(i64 noundef 184) #22
  tail call void @llvm.memset.p0.i64(ptr noundef nonnull align 8 dereferenceable(184) %2, i8 0, i64 184, i1 false)
  %3 = getelementptr inbounds nuw i8, ptr %2, i64 140
  store i8 1, ptr %3, align 4
  %4 = getelementptr inbounds nuw i8, ptr %2, i64 52
  store i32 255, ptr %4, align 4
  %5 = getelementptr inbounds nuw i8, ptr %2, i64 176
  store i8 1, ptr %5, align 8
  %6 = getelementptr inbounds nuw i8, ptr %2, i64 177
  store i8 1, ptr %6, align 1
  %7 = getelementptr inbounds nuw i8, ptr %0, i64 272
  %8 = load ptr, ptr %7, align 8
  %.not = icmp eq ptr %8, null
  br i1 %.not, label %11, label %9

9:                                                ; preds = %1
  %10 = tail call ptr @pg_strdup(ptr noundef nonnull %8) #22
  br label %11

11:                                               ; preds = %1, %9
  %12 = phi ptr [ %10, %9 ], [ null, %1 ]
  store ptr %12, ptr %2, align 8
  %13 = getelementptr inbounds nuw i8, ptr %0, i64 280
  %14 = load ptr, ptr %13, align 8
  %.not66 = icmp eq ptr %14, null
  br i1 %.not66, label %17, label %15

15:                                               ; preds = %11
  %16 = tail call ptr @pg_strdup(ptr noundef nonnull %14) #22
  br label %17

17:                                               ; preds = %11, %15
  %18 = phi ptr [ %16, %15 ], [ null, %11 ]
  %19 = getelementptr inbounds nuw i8, ptr %2, i64 8
  store ptr %18, ptr %19, align 8
  %20 = getelementptr inbounds nuw i8, ptr %0, i64 288
  %21 = load ptr, ptr %20, align 8
  %.not67 = icmp eq ptr %21, null
  br i1 %.not67, label %24, label %22

22:                                               ; preds = %17
  %23 = tail call ptr @pg_strdup(ptr noundef nonnull %21) #22
  br label %24

24:                                               ; preds = %17, %22
  %25 = phi ptr [ %23, %22 ], [ null, %17 ]
  %26 = getelementptr inbounds nuw i8, ptr %2, i64 16
  store ptr %25, ptr %26, align 8
  %27 = getelementptr inbounds nuw i8, ptr %0, i64 296
  %28 = load ptr, ptr %27, align 8
  %.not68 = icmp eq ptr %28, null
  br i1 %.not68, label %31, label %29

29:                                               ; preds = %24
  %30 = tail call ptr @pg_strdup(ptr noundef nonnull %28) #22
  br label %31

31:                                               ; preds = %24, %29
  %32 = phi ptr [ %30, %29 ], [ null, %24 ]
  %33 = getelementptr inbounds nuw i8, ptr %2, i64 24
  store ptr %32, ptr %33, align 8
  %34 = getelementptr inbounds nuw i8, ptr %0, i64 304
  %35 = load i32, ptr %34, align 8
  %36 = getelementptr inbounds nuw i8, ptr %2, i64 32
  store i32 %35, ptr %36, align 8
  %37 = getelementptr inbounds nuw i8, ptr %0, i64 40
  %38 = load i32, ptr %37, align 8
  %39 = getelementptr inbounds nuw i8, ptr %2, i64 144
  store i32 %38, ptr %39, align 8
  %40 = getelementptr inbounds nuw i8, ptr %0, i64 397
  %41 = load i8, ptr %40, align 1, !range !4, !noundef !5
  store i8 %41, ptr %6, align 1
  %42 = getelementptr inbounds nuw i8, ptr %0, i64 396
  %43 = load i8, ptr %42, align 4, !range !4, !noundef !5
  store i8 %43, ptr %5, align 8
  %44 = getelementptr inbounds nuw i8, ptr %0, i64 56
  %45 = load i32, ptr %44, align 8
  %46 = getelementptr inbounds nuw i8, ptr %2, i64 84
  store i32 %45, ptr %46, align 4
  %47 = getelementptr inbounds nuw i8, ptr %0, i64 52
  %48 = load i32, ptr %47, align 4
  %49 = getelementptr inbounds nuw i8, ptr %2, i64 80
  store i32 %48, ptr %49, align 8
  %50 = getelementptr inbounds nuw i8, ptr %0, i64 88
  %51 = load i32, ptr %50, align 8
  store i32 %51, ptr %4, align 4
  %52 = getelementptr inbounds nuw i8, ptr %0, i64 96
  %53 = load i32, ptr %52, align 8
  %54 = icmp ne i32 %53, 0
  %55 = getelementptr inbounds nuw i8, ptr %2, i64 56
  %56 = zext i1 %54 to i8
  store i8 %56, ptr %55, align 8
  %57 = getelementptr inbounds nuw i8, ptr %0, i64 24
  %58 = load ptr, ptr %57, align 8
  %59 = getelementptr inbounds nuw i8, ptr %2, i64 160
  store ptr %58, ptr %59, align 8
  %60 = load i32, ptr %0, align 8
  %61 = getelementptr inbounds nuw i8, ptr %2, i64 148
  store i32 %60, ptr %61, align 4
  %62 = getelementptr inbounds nuw i8, ptr %0, i64 4
  %63 = load i32, ptr %62, align 4
  %64 = getelementptr inbounds nuw i8, ptr %2, i64 156
  store i32 %63, ptr %64, align 4
  %65 = getelementptr inbounds nuw i8, ptr %0, i64 8
  %66 = load i32, ptr %65, align 8
  %67 = getelementptr inbounds nuw i8, ptr %2, i64 120
  store i32 %66, ptr %67, align 8
  %68 = getelementptr inbounds nuw i8, ptr %0, i64 12
  %69 = load i32, ptr %68, align 4
  %70 = getelementptr inbounds nuw i8, ptr %2, i64 124
  store i32 %69, ptr %70, align 4
  %71 = getelementptr inbounds nuw i8, ptr %0, i64 16
  %72 = load i32, ptr %71, align 8
  %73 = getelementptr inbounds nuw i8, ptr %2, i64 116
  store i32 %72, ptr %73, align 4
  %74 = getelementptr inbounds nuw i8, ptr %0, i64 20
  %75 = load i32, ptr %74, align 4
  %76 = getelementptr inbounds nuw i8, ptr %2, i64 128
  store i32 %75, ptr %76, align 8
  %77 = getelementptr inbounds nuw i8, ptr %0, i64 44
  %78 = load i32, ptr %77, align 4
  %79 = getelementptr inbounds nuw i8, ptr %2, i64 76
  store i32 %78, ptr %79, align 4
  %80 = getelementptr inbounds nuw i8, ptr %0, i64 48
  %81 = load i32, ptr %80, align 8
  %82 = getelementptr inbounds nuw i8, ptr %2, i64 72
  store i32 %81, ptr %82, align 8
  %83 = getelementptr inbounds nuw i8, ptr %0, i64 60
  %84 = load i32, ptr %83, align 4
  %85 = getelementptr inbounds nuw i8, ptr %2, i64 88
  store i32 %84, ptr %85, align 8
  %86 = getelementptr inbounds nuw i8, ptr %0, i64 64
  %87 = load i32, ptr %86, align 8
  %88 = getelementptr inbounds nuw i8, ptr %2, i64 96
  store i32 %87, ptr %88, align 8
  %89 = getelementptr inbounds nuw i8, ptr %0, i64 68
  %90 = load i32, ptr %89, align 4
  %91 = getelementptr inbounds nuw i8, ptr %2, i64 92
  store i32 %90, ptr %91, align 4
  %92 = getelementptr inbounds nuw i8, ptr %0, i64 72
  %93 = load i32, ptr %92, align 8
  %94 = getelementptr inbounds nuw i8, ptr %2, i64 100
  store i32 %93, ptr %94, align 4
  %95 = getelementptr inbounds nuw i8, ptr %0, i64 104
  %96 = load ptr, ptr %95, align 8
  %97 = getelementptr inbounds nuw i8, ptr %2, i64 64
  store ptr %96, ptr %97, align 8
  %98 = getelementptr inbounds nuw i8, ptr %0, i64 112
  %99 = load i32, ptr %98, align 8
  %100 = icmp ne i32 %99, 0
  %101 = zext i1 %100 to i8
  store i8 %101, ptr %3, align 4
  %102 = getelementptr inbounds nuw i8, ptr %0, i64 384
  %103 = load i32, ptr %102, align 8
  %104 = getelementptr inbounds nuw i8, ptr %2, i64 132
  store i32 %103, ptr %104, align 4
  %105 = getelementptr inbounds nuw i8, ptr %0, i64 388
  %106 = load i32, ptr %105, align 4
  %107 = getelementptr inbounds nuw i8, ptr %2, i64 168
  store i32 %106, ptr %107, align 8
  ret ptr %2
}